target datalayout = "e-m:e-p270:32:32-p271:32:32-p272:64:64-i64:64-i128:128-f80:128-n8:16:32:64-S128"
target triple = "x86_64-pc-linux-gnu"

%struct.colorsegs_t = type { ptr, i64, i64, i64 }
%struct.colorseg_t = type { ptr, double, i8 }

@stderr = external global ptr, align 8
@.str.40 = private unnamed_addr constant [66 x i8] c"More than 2 colors specified for a gradient - ignoring remaining\0A\00", align 1
@.str.41 = private unnamed_addr constant [49 x i8] c"out of memory when trying to allocate %zu bytes\0A\00", align 1

; Function Attrs: nounwind uwtable
define internal void @freeSeg(ptr noundef byval(%struct.colorseg_t) align 8 %0) #0 {
  %2 = getelementptr inbounds nuw %struct.colorseg_t, ptr %0, i32 0, i32 0
  %3 = load ptr, ptr %2, align 8, !tbaa !107
  call void @free(ptr noundef %3) #15
  ret void
}

; Function Attrs: inlinehint nounwind uwtable
define internal void @colorsegs_clear(ptr noundef %0) #3 {
  %2 = alloca ptr, align 8
  %3 = alloca i64, align 8
  %4 = alloca %struct.colorseg_t, align 8
  store ptr %0, ptr %2, align 8, !tbaa !8
  call void @llvm.lifetime.start.p0(i64 8, ptr %3) #15
  store i64 0, ptr %3, align 8, !tbaa !49
  br label %5

5:                                                ; preds = %18, %1
  %6 = load i64, ptr %3, align 8, !tbaa !49
  %7 = load ptr, ptr %2, align 8, !tbaa !8
  %8 = getelementptr inbounds nuw %struct.colorsegs_t, ptr %7, i32 0, i32 2
  %9 = load i64, ptr %8, align 8, !tbaa !127
  %10 = icmp ult i64 %6, %9
  br i1 %10, label %12, label %11

11:                                               ; preds = %5
  call void @llvm.lifetime.end.p0(i64 8, ptr %3) #15
  br label %21

12:                                               ; preds = %5
  %13 = load ptr, ptr %2, align 8, !tbaa !8
  %14 = load i64, ptr %3, align 8, !tbaa !49
  call void @colorsegs_get(ptr dead_on_unwind writable sret(%struct.colorseg_t) align 8 %4, ptr noundef %13, i64 noundef %14)
  call void @freeSeg(ptr noundef byval(%struct.colorseg_t) align 8 %4)
  br label %15

15:                                               ; preds = %12
  br label %16

16:                                               ; preds = %15
  br label %17

17:                                               ; preds = %16
  br label %18

18:                                               ; preds = %17
  %19 = load i64, ptr %3, align 8, !tbaa !49
  %20 = add i64 %19, 1
  store i64 %20, ptr %3, align 8, !tbaa !49
  br label %5, !llvm.loop !358

21:                                               ; preds = %11
  %22 = load ptr, ptr %2, align 8, !tbaa !8
  %23 = getelementptr inbounds nuw %struct.colorsegs_t, ptr %22, i32 0, i32 2
  store i64 0, ptr %23, align 8, !tbaa !127
  %24 = load ptr, ptr %2, align 8, !tbaa !8
  %25 = getelementptr inbounds nuw %struct.colorsegs_t, ptr %24, i32 0, i32 1
  store i64 0, ptr %25, align 8, !tbaa !130
  ret void
}

; Function Attrs: inlinehint nounwind uwtable
define internal ptr @colorsegs_at(ptr noundef %0, i64 noundef %1) #3 {
  %3 = alloca ptr, align 8
  %4 = alloca i64, align 8
  store ptr %0, ptr %3, align 8, !tbaa !8
  store i64 %1, ptr %4, align 8, !tbaa !49
  %5 = load ptr, ptr %3, align 8, !tbaa !8
  %6 = getelementptr inbounds nuw %struct.colorsegs_t, ptr %5, i32 0, i32 0
  %7 = load ptr, ptr %6, align 8, !tbaa !129
  %8 = load ptr, ptr %3, align 8, !tbaa !8
  %9 = getelementptr inbounds nuw %struct.colorsegs_t, ptr %8, i32 0, i32 1
  %10 = load i64, ptr %9, align 8, !tbaa !130
  %11 = load i64, ptr %4, align 8, !tbaa !49
  %12 = add i64 %10, %11
  %13 = load ptr, ptr %3, align 8, !tbaa !8
  %14 = getelementptr inbounds nuw %struct.colorsegs_t, ptr %13, i32 0, i32 3
  %15 = load i64, ptr %14, align 8, !tbaa !131
  %16 = urem i64 %12, %15
  %17 = getelementptr inbounds nuw %struct.colorseg_t, ptr %7, i64 %16
  ret ptr %17
}

; Function Attrs: inlinehint nounwind uwtable
define internal void @colorsegs_get(ptr dead_on_unwind noalias writable sret(%struct.colorseg_t) align 8 %0, ptr noundef %1, i64 noundef %2) #3 {
  %4 = alloca ptr, align 8
  %5 = alloca i64, align 8
  store ptr %1, ptr %4, align 8, !tbaa !8
  store i64 %2, ptr %5, align 8, !tbaa !49
  %6 = load ptr, ptr %4, align 8, !tbaa !8
  %7 = getelementptr inbounds nuw %struct.colorsegs_t, ptr %6, i32 0, i32 0
  %8 = load ptr, ptr %7, align 8, !tbaa !129
  %9 = load ptr, ptr %4, align 8, !tbaa !8
  %10 = getelementptr inbounds nuw %struct.colorsegs_t, ptr %9, i32 0, i32 1
  %11 = load i64, ptr %10, align 8, !tbaa !130
  %12 = load i64, ptr %5, align 8, !tbaa !49
  %13 = add i64 %11, %12
  %14 = load ptr, ptr %4, align 8, !tbaa !8
  %15 = getelementptr inbounds nuw %struct.colorsegs_t, ptr %14, i32 0, i32 3
  %16 = load i64, ptr %15, align 8, !tbaa !131
  %17 = urem i64 %13, %16
  %18 = getelementptr inbounds nuw %struct.colorseg_t, ptr %8, i64 %17
  call void @llvm.memcpy.p0.p0.i64(ptr align 8 %0, ptr align 8 %18, i64 24, i1 false), !tbaa.struct !132
  ret void
}

; Function Attrs: inlinehint nounwind uwtable
define internal ptr @gv_strdup(ptr noundef %0) #3 {
  %2 = alloca ptr, align 8
  %3 = alloca ptr, align 8
  store ptr %0, ptr %2, align 8, !tbaa !9
  call void @llvm.lifetime.start.p0(i64 8, ptr %3) #15
  %4 = load ptr, ptr %2, align 8, !tbaa !9
  %5 = call noalias ptr @strdup(ptr noundef %4) #15
  store ptr %5, ptr %3, align 8, !tbaa !9
  %6 = load ptr, ptr %3, align 8, !tbaa !9
  %7 = icmp eq ptr %6, null
  br i1 %7, label %8, label %14

8:                                                ; preds = %1
  %9 = load ptr, ptr @stderr, align 8, !tbaa !68
  %10 = load ptr, ptr %2, align 8, !tbaa !9
  %11 = call i64 @strlen(ptr noundef %10) #16
  %12 = add i64 %11, 1
  %13 = call i32 (ptr, ptr, ...) @fprintf(ptr noundef %9, ptr noundef @.str.41, i64 noundef %12) #15
  call void @graphviz_exit(i32 noundef 1) #17
  unreachable

14:                                               ; preds = %1
  %15 = load ptr, ptr %3, align 8, !tbaa !9
  call void @llvm.lifetime.end.p0(i64 8, ptr %3) #15
  ret ptr %15
}

; Function Attrs: inlinehint nounwind uwtable
define internal void @colorsegs_free(ptr noundef %0) #3 {
  %2 = alloca ptr, align 8
  store ptr %0, ptr %2, align 8, !tbaa !8
  %3 = load ptr, ptr %2, align 8, !tbaa !8
  call void @colorsegs_clear(ptr noundef %3)
  %4 = load ptr, ptr %2, align 8, !tbaa !8
  %5 = getelementptr inbounds nuw %struct.colorsegs_t, ptr %4, i32 0, i32 0
  %6 = load ptr, ptr %5, align 8, !tbaa !129
  call void @free(ptr noundef %6) #15
  %7 = load ptr, ptr %2, align 8, !tbaa !8
  call void @llvm.memset.p0.i64(ptr align 8 %7, i8 0, i64 32, i1 false)
  ret void
}

; Function Attrs: inlinehint nounwind uwtable
define internal ptr @colorsegs_front(ptr noundef %0) #3 {
  %2 = alloca ptr, align 8
  store ptr %0, ptr %2, align 8, !tbaa !8
  %3 = load ptr, ptr %2, align 8, !tbaa !8
  %4 = call ptr @colorsegs_at(ptr noundef %3, i64 noundef 0)
  ret ptr %4
}

; Function Attrs: inlinehint nounwind uwtable
define internal i64 @colorsegs_size(ptr noundef %0) #3 {
  %2 = alloca ptr, align 8
  store ptr %0, ptr %2, align 8, !tbaa !8
  %3 = load ptr, ptr %2, align 8, !tbaa !8
  %4 = getelementptr inbounds nuw %struct.colorsegs_t, ptr %3, i32 0, i32 2
  %5 = load i64, ptr %4, align 8, !tbaa !127
  ret i64 %5
}

; Function Attrs: nounwind uwtable
define zeroext i1 @findStopColor(ptr noundef %0, ptr noundef %1, ptr noundef %2) #0 {
  %4 = alloca i1, align 1
  %5 = alloca ptr, align 8
  %6 = alloca ptr, align 8
  %7 = alloca ptr, align 8
  %8 = alloca %struct.colorsegs_t, align 8
  %9 = alloca i32, align 4
  %10 = alloca i32, align 4
  %11 = alloca %struct.colorseg_t, align 8
  %12 = alloca %struct.colorseg_t, align 8
  %13 = alloca %struct.colorseg_t, align 8
  %14 = alloca %struct.colorseg_t, align 8
  store ptr %0, ptr %5, align 8, !tbaa !9
  store ptr %1, ptr %6, align 8, !tbaa !230
  store ptr %2, ptr %7, align 8, !tbaa !243
  call void @llvm.lifetime.start.p0(i64 32, ptr %8) #15
  call void @llvm.memset.p0.i64(ptr align 8 %8, i8 0, i64 32, i1 false)
  call void @llvm.lifetime.start.p0(i64 4, ptr %9) #15
  %15 = load ptr, ptr %6, align 8, !tbaa !230
  %16 = getelementptr inbounds ptr, ptr %15, i64 0
  store ptr null, ptr %16, align 8, !tbaa !9
  %17 = load ptr, ptr %6, align 8, !tbaa !230
  %18 = getelementptr inbounds ptr, ptr %17, i64 1
  store ptr null, ptr %18, align 8, !tbaa !9
  %19 = load ptr, ptr %5, align 8, !tbaa !9
  %20 = call i32 @parseSegs(ptr noundef %19, ptr noundef %8)
  store i32 %20, ptr %9, align 4, !tbaa !44
  %21 = load i32, ptr %9, align 4, !tbaa !44
  %22 = icmp ne i32 %21, 0
  br i1 %22, label %31, label %23

23:                                               ; preds = %3
  %24 = call i64 @colorsegs_size(ptr noundef %8)
  %25 = icmp ult i64 %24, 2
  br i1 %25, label %31, label %26

26:                                               ; preds = %23
  %27 = call ptr @colorsegs_front(ptr noundef %8)
  %28 = getelementptr inbounds nuw %struct.colorseg_t, ptr %27, i32 0, i32 0
  %29 = load ptr, ptr %28, align 8, !tbaa !107
  %30 = icmp eq ptr %29, null
  br i1 %30, label %31, label %32

31:                                               ; preds = %26, %23, %3
  call void @colorsegs_free(ptr noundef %8)
  store i1 false, ptr %4, align 1
  store i32 1, ptr %10, align 4
  br label %75

32:                                               ; preds = %26
  %33 = call i64 @colorsegs_size(ptr noundef %8)
  %34 = icmp ugt i64 %33, 2
  br i1 %34, label %35, label %36

35:                                               ; preds = %32
  call void (ptr, ...) @agwarningf(ptr noundef @.str.40)
  br label %36

36:                                               ; preds = %35, %32
  %37 = call ptr @colorsegs_front(ptr noundef %8)
  %38 = getelementptr inbounds nuw %struct.colorseg_t, ptr %37, i32 0, i32 0
  %39 = load ptr, ptr %38, align 8, !tbaa !107
  %40 = call ptr @gv_strdup(ptr noundef %39)
  %41 = load ptr, ptr %6, align 8, !tbaa !230
  %42 = getelementptr inbounds ptr, ptr %41, i64 0
  store ptr %40, ptr %42, align 8, !tbaa !9
  call void @colorsegs_get(ptr dead_on_unwind writable sret(%struct.colorseg_t) align 8 %11, ptr noundef %8, i64 noundef 1)
  %43 = getelementptr inbounds nuw %struct.colorseg_t, ptr %11, i32 0, i32 0
  %44 = load ptr, ptr %43, align 8, !tbaa !107
  %45 = icmp ne ptr %44, null
  br i1 %45, label %46, label %52

46:                                               ; preds = %36
  call void @colorsegs_get(ptr dead_on_unwind writable sret(%struct.colorseg_t) align 8 %12, ptr noundef %8, i64 noundef 1)
  %47 = getelementptr inbounds nuw %struct.colorseg_t, ptr %12, i32 0, i32 0
  %48 = load ptr, ptr %47, align 8, !tbaa !107
  %49 = call ptr @gv_strdup(ptr noundef %48)
  %50 = load ptr, ptr %6, align 8, !tbaa !230
  %51 = getelementptr inbounds ptr, ptr %50, i64 1
  store ptr %49, ptr %51, align 8, !tbaa !9
  br label %52

52:                                               ; preds = %46, %36
  %53 = call ptr @colorsegs_front(ptr noundef %8)
  %54 = getelementptr inbounds nuw %struct.colorseg_t, ptr %53, i32 0, i32 2
  %55 = load i8, ptr %54, align 8, !tbaa !119, !range !185, !noundef !186
  %56 = trunc i8 %55 to i1
  br i1 %56, label %57, label %62

57:                                               ; preds = %52
  %58 = call ptr @colorsegs_front(ptr noundef %8)
  %59 = getelementptr inbounds nuw %struct.colorseg_t, ptr %58, i32 0, i32 1
  %60 = load double, ptr %59, align 8, !tbaa !109
  %61 = load ptr, ptr %7, align 8, !tbaa !243
  store double %60, ptr %61, align 8, !tbaa !106
  br label %74

62:                                               ; preds = %52
  call void @colorsegs_get(ptr dead_on_unwind writable sret(%struct.colorseg_t) align 8 %13, ptr noundef %8, i64 noundef 1)
  %63 = getelementptr inbounds nuw %struct.colorseg_t, ptr %13, i32 0, i32 2
  %64 = load i8, ptr %63, align 8, !tbaa !119, !range !185, !noundef !186
  %65 = trunc i8 %64 to i1
  br i1 %65, label %66, label %71

66:                                               ; preds = %62
  call void @colorsegs_get(ptr dead_on_unwind writable sret(%struct.colorseg_t) align 8 %14, ptr noundef %8, i64 noundef 1)
  %67 = getelementptr inbounds nuw %struct.colorseg_t, ptr %14, i32 0, i32 1
  %68 = load double, ptr %67, align 8, !tbaa !109
  %69 = fsub double 1.000000e+00, %68
  %70 = load ptr, ptr %7, align 8, !tbaa !243
  store double %69, ptr %70, align 8, !tbaa !106
  br label %73

71:                                               ; preds = %62
  %72 = load ptr, ptr %7, align 8, !tbaa !243
  store double 0.000000e+00, ptr %72, align 8, !tbaa !106
  br label %73

73:                                               ; preds = %71, %66
  br label %74

74:                                               ; preds = %73, %57
  call void @colorsegs_free(ptr noundef %8)
  store i1 true, ptr %4, align 1
  store i32 1, ptr %10, align 4
  br label %75

75:                                               ; preds = %74, %31
  call void @llvm.lifetime.end.p0(i64 4, ptr %9) #15
  call void @llvm.lifetime.end.p0(i64 32, ptr %8) #15
  %76 = load i1, ptr %4, align 1
  ret i1 %76
}