; Function Attrs: nounwind uwtable
define noundef zeroext i1 @findStopColor(ptr noundef %0, ptr noundef writeonly captures(none) initializes((0, 16)) %1, ptr noundef writeonly captures(none) %2) local_unnamed_addr #0 {
  %4 = alloca %struct.colorsegs_t, align 8
  call void @llvm.lifetime.start.p0(i64 32, ptr nonnull %4) #27
  call void @llvm.memset.p0.i64(ptr noundef nonnull align 8 dereferenceable(32) %4, i8 0, i64 32, i1 false)
  %5 = getelementptr inbounds nuw i8, ptr %1, i64 8
  tail call void @llvm.memset.p0.i64(ptr noundef nonnull align 8 dereferenceable(16) %1, i8 0, i64 16, i1 false)
  %6 = call fastcc i32 @parseSegs(ptr noundef %0, ptr noundef %4)
  %.not = icmp eq i32 %6, 0
  %7 = getelementptr inbounds nuw i8, ptr %4, i64 16
  %.val10 = load i64, ptr %7, align 8, !tbaa !100
  br i1 %.not, label %8, label %._crit_edge

._crit_edge:                                      ; preds = %3
  %.pre27.pre = load ptr, ptr %4, align 8, !tbaa !102
  br label %19

8:                                                ; preds = %3
  %9 = icmp ult i64 %.val10, 2
  %.pre27.pre28 = load ptr, ptr %4, align 8, !tbaa !102
  br i1 %9, label %19, label %10

10:                                               ; preds = %8
  %11 = getelementptr inbounds nuw i8, ptr %4, i64 8
  %12 = load i64, ptr %11, align 8, !tbaa !106
  %13 = getelementptr inbounds nuw i8, ptr %4, i64 24
  %14 = load i64, ptr %13, align 8, !tbaa !107
  %15 = urem i64 %12, %14
  %16 = getelementptr inbounds nuw %struct.colorseg_t, ptr %.pre27.pre28, i64 %15
  %17 = load ptr, ptr %16, align 8, !tbaa !303
  %18 = icmp eq ptr %17, null
  br i1 %18, label %.lr.ph.i.i, label %29

19:                                               ; preds = %._crit_edge, %8
  %.pre27 = phi ptr [ %.pre27.pre, %._crit_edge ], [ %.pre27.pre28, %8 ]
  %.not.i.i = icmp eq i64 %.val10, 0
  br i1 %.not.i.i, label %colorsegs_free.exit, label %.lr.ph.i.i

.lr.ph.i.i:                                       ; preds = %10, %19
  %.pre2732 = phi ptr [ %.pre27, %19 ], [ %.pre27.pre28, %10 ]
  %20 = getelementptr inbounds nuw i8, ptr %4, i64 8
  %21 = getelementptr inbounds nuw i8, ptr %4, i64 24
  %22 = load i64, ptr %20, align 8, !tbaa !106, !noalias !304
  %23 = load i64, ptr %21, align 8, !tbaa !107, !noalias !304
  br label %24

24:                                               ; preds = %24, %.lr.ph.i.i
  %.06.i.i = phi i64 [ 0, %.lr.ph.i.i ], [ %28, %24 ]
  %25 = add i64 %22, %.06.i.i
  %26 = urem i64 %25, %23
  %27 = getelementptr inbounds nuw %struct.colorseg_t, ptr %.pre2732, i64 %26
  %.sroa.0.0.copyload.i.i = load ptr, ptr %27, align 8, !tbaa !97
  tail call void @free(ptr noundef %.sroa.0.0.copyload.i.i) #27
  %28 = add nuw i64 %.06.i.i, 1
  %exitcond25.not = icmp eq i64 %28, %.val10
  br i1 %exitcond25.not, label %colorsegs_free.exit, label %24, !llvm.loop !117

29:                                               ; preds = %10
  %.not24 = icmp eq i64 %.val10, 2
  br i1 %.not24, label %31, label %30

30:                                               ; preds = %29
  tail call void (ptr, ...) @agwarningf(ptr noundef nonnull @.str.40) #27
  %.pre = load ptr, ptr %16, align 8, !tbaa !303
  br label %31

31:                                               ; preds = %30, %29
  %32 = phi ptr [ %.pre, %30 ], [ %17, %29 ]
  %33 = tail call noalias ptr @strdup(ptr noundef readonly %32) #27
  %34 = icmp eq ptr %33, null
  br i1 %34, label %35, label %gv_strdup.exit

35:                                               ; preds = %31
  %36 = load ptr, ptr @stderr, align 8, !tbaa !6
  %37 = tail call i64 @strlen(ptr noundef nonnull readonly dereferenceable(1) %32) #31
  %38 = add i64 %37, 1
  %39 = tail call i32 (ptr, ptr, ...) @fprintf(ptr noundef %36, ptr noundef nonnull @.str.41, i64 noundef %38) #29
  tail call fastcc void @graphviz_exit() #30
  unreachable

gv_strdup.exit:                                   ; preds = %31
  store ptr %33, ptr %1, align 8, !tbaa !97
  %40 = add i64 %12, 1
  %41 = urem i64 %40, %14
  %42 = getelementptr inbounds nuw %struct.colorseg_t, ptr %.pre27.pre28, i64 %41
  %.sroa.022.0.copyload = load ptr, ptr %42, align 8, !tbaa !97
  %.sroa.223.0..sroa_idx = getelementptr inbounds nuw i8, ptr %42, i64 8
  %.not9 = icmp eq ptr %.sroa.022.0.copyload, null
  br i1 %.not9, label %51, label %43

43:                                               ; preds = %gv_strdup.exit
  %44 = tail call noalias ptr @strdup(ptr noundef nonnull readonly %.sroa.022.0.copyload) #27
  %45 = icmp eq ptr %44, null
  br i1 %45, label %46, label %gv_strdup.exit11

46:                                               ; preds = %43
  %47 = load ptr, ptr @stderr, align 8, !tbaa !6
  %48 = tail call i64 @strlen(ptr noundef nonnull readonly dereferenceable(1) %.sroa.022.0.copyload) #31
  %49 = add i64 %48, 1
  %50 = tail call i32 (ptr, ptr, ...) @fprintf(ptr noundef %47, ptr noundef nonnull @.str.41, i64 noundef %49) #29
  tail call fastcc void @graphviz_exit() #30
  unreachable

gv_strdup.exit11:                                 ; preds = %43
  store ptr %44, ptr %5, align 8, !tbaa !97
  br label %51

51:                                               ; preds = %gv_strdup.exit11, %gv_strdup.exit
  %52 = getelementptr inbounds nuw i8, ptr %16, i64 16
  %53 = load i8, ptr %52, align 8, !tbaa !307, !range !195, !noundef !196
  %54 = trunc nuw i8 %53 to i1
  br i1 %54, label %55, label %58

55:                                               ; preds = %51
  %56 = getelementptr inbounds nuw i8, ptr %16, i64 8
  %57 = load double, ptr %56, align 8, !tbaa !120
  br label %.lr.ph.i.i13

58:                                               ; preds = %51
  %.sroa.118.0..sroa_idx = getelementptr inbounds nuw i8, ptr %42, i64 16
  %.sroa.118.0.copyload = load i8, ptr %.sroa.118.0..sroa_idx, align 8, !tbaa !194
  %59 = trunc nuw i8 %.sroa.118.0.copyload to i1
  br i1 %59, label %60, label %.lr.ph.i.i13

60:                                               ; preds = %58
  %.sroa.1.0.copyload = load double, ptr %.sroa.223.0..sroa_idx, align 8, !tbaa !108
  %61 = fsub double 1.000000e+00, %.sroa.1.0.copyload
  br label %.lr.ph.i.i13

.lr.ph.i.i13:                                     ; preds = %58, %55, %60
  %.sink = phi double [ %57, %55 ], [ %61, %60 ], [ 0.000000e+00, %58 ]
  store double %.sink, ptr %2, align 8, !tbaa !108
  br label %62

62:                                               ; preds = %62, %.lr.ph.i.i13
  %.06.i.i14 = phi i64 [ 0, %.lr.ph.i.i13 ], [ %66, %62 ]
  %63 = add i64 %.06.i.i14, %12
  %64 = urem i64 %63, %14
  %65 = getelementptr inbounds nuw %struct.colorseg_t, ptr %.pre27.pre28, i64 %64
  %.sroa.0.0.copyload.i.i15 = load ptr, ptr %65, align 8, !tbaa !97
  tail call void @free(ptr noundef %.sroa.0.0.copyload.i.i15) #27
  %66 = add nuw i64 %.06.i.i14, 1
  %exitcond.not = icmp eq i64 %66, %.val10
  br i1 %exitcond.not, label %colorsegs_free.exit, label %62, !llvm.loop !117

colorsegs_free.exit:                              ; preds = %62, %24, %19
  %.pre27.pre28.sink = phi ptr [ %.pre27, %19 ], [ %.pre2732, %24 ], [ %.pre27.pre28, %62 ]
  %.0 = phi i1 [ false, %19 ], [ false, %24 ], [ true, %62 ]
  tail call void @free(ptr noundef %.pre27.pre28.sink) #27
  call void @llvm.lifetime.end.p0(i64 32, ptr nonnull %4) #27
  ret i1 %.0
}